; Function Attrs: nounwind uwtable
define internal ptr @make_union(ptr noundef %0, ptr noundef %1) #0 {
  %3 = alloca [2 x ptr], align 16
  call void @llvm.lifetime.start.p0(i64 16, ptr nonnull %3) #8
  store ptr %0, ptr %3, align 16, !tbaa !16
  %4 = getelementptr inbounds nuw i8, ptr %3, i64 8
  store ptr %1, ptr %4, align 8, !tbaa !16
  %5 = call fastcc ptr @call_typing_func_object(ptr noundef nonnull @.str.36, ptr noundef %3, i64 noundef 2)
  call void @llvm.lifetime.end.p0(i64 16, ptr nonnull %3) #8
  ret ptr %5
}